(dp0
S'bd'
p1
S'Brachypodium'
p2
sS'cp'
p3
S'Papaya'
p4
sS'pt'
p5
S'Poplar'
p6
sS'mt'
p7
S'Medicago'
p8
sS'at'
p9
S'Arabidopsis'
p10
sS'vv'
p11
S'Grape'
p12
sS'sb'
p13
S'Sorghum'
p14
sS'gl'
p15
S'Soybean'
p16
sS'os'
p17
S'Rice'
p18
s.