(dp0
S'bd'
p1
(lp2
I7465
aI5787
aI5637
aI4182
aI2430
asS'mt'
p3
(lp4
I4459
aI4046
aI5444
aI5592
aI6277
aI2496
aI4452
aI4637
asS'gl'
p5
(lp6
I3139
aI3616
aI3208
aI3005
aI2865
aI3805
aI3275
aI4093
aI3363
aI3542
aI3096
aI2894
aI3972
aI2860
aI3372
aI2612
aI3096
aI3828
aI3164
aI2976
asS'at'
p7
(lp8
I6917
aI4194
aI5334
aI4083
aI6256
asS'pt'
p9
(lp10
I3168
aI2681
aI1849
aI1433
aI1701
aI1966
aI1286
aI1979
aI1627
aI2337
aI1275
aI1274
aI1155
aI1422
aI1208
aI1297
aI454
aI1215
aI933
asS'sb'
p11
(lp12
I5949
aI4734
aI4830
aI3930
aI2623
aI3125
aI2547
aI2202
aI2836
aI3073
asS'cp'
p13
(lp14
sS'os'
p15
(lp16
I4156
aI3319
aI3611
aI2608
aI2330
aI2377
aI2253
aI2006
aI1638
aI1598
aI1799
aI1694
asS'vv'
p17
(lp18
I1327
aI1237
aI1000
aI1638
aI1748
aI1779
aI1409
aI1867
aI1221
aI632
aI1107
aI1481
aI1329
aI1729
aI561
aI647
aI1168
aI1886
aI1135
as.