(dp0
S'bd'
p1
(lp2
I74825983
aI59317709
aI59849800
aI48558322
aI28425606
asS'mt'
p3
(lp4
I31268693
aI27830709
aI38176454
aI39358595
aI37272728
aI19991866
aI32471112
aI35195386
asS'gl'
p5
(lp6
I55912005
aI51654775
aI47777724
aI49239206
aI41924539
aI50721676
aI44654982
aI46990213
aI46837340
aI50964148
aI39160917
aI40102542
aI44405458
aI49702269
aI50909538
aI37394105
aI41876736
aI62304917
aI50586806
aI46769133
asS'at'
p7
(lp8
I30429313
aI19703654
aI23468762
aI18583230
aI26987774
asS'pt'
p9
(lp10
I35561187
aI24473365
aI19108458
aI16620828
aI17952309
aI18518928
aI12785877
aI16047555
aI12506016
aI21082376
aI15118111
aI14142880
aI13095453
aI14656966
aI10586636
aI13659955
aI6047301
aI13451173
aI11996607
asS'sb'
p11
(lp12
I73833847
aI77927413
aI74439055
aI68022265
aI62328788
aI62203723
aI64307977
aI55457762
aI59610986
aI60976732
asS'cp'
p13
(lp14
sS'os'
p15
(lp16
I45044312
aI36816611
aI37256277
aI35862449
aI29867299
aI32103267
aI30343014
aI28496993
aI23765621
aI23655500
aI30821052
aI27756147
asS'vv'
p17
(lp18
I15625552
aI17599328
aI10149939
aI19284217
aI23407628
aI24133948
aI15222419
aI21551208
aI16530171
aI9645589
aI13927525
aI18537057
aI15183129
aI19466397
aI7693102
aI8147895
aI13057774
aI19691255
aI14061252
as.